; Function Attrs: nounwind sspstrong uwtable
define dso_local i64 @rb_int2inum(i64 noundef %0) local_unnamed_addr #0 {
  %2 = add i64 %0, 4611686018427387904
  %or.cond = icmp sgt i64 %2, -1
  br i1 %or.cond, label %3, label %6

3:                                                ; preds = %1
  %4 = shl nsw i64 %0, 1
  %5 = or disjoint i64 %4, 1
  br label %8

6:                                                ; preds = %1
  %7 = tail call i64 @rb_int2big(i64 noundef %0)
  br label %8

8:                                                ; preds = %6, %3
  %.0 = phi i64 [ %5, %3 ], [ %7, %6 ]
  ret i64 %.0
}